; ModuleID = '41/215.cpp'
source_filename = "41/215.cpp"
target datalayout = "e-m:e-p270:32:32-p271:32:32-p272:64:64-i64:64-f80:128-n8:16:32:64-S128"
target triple = "x86_64-pc-linux-gnu"

%"class.std::ios_base::Init" = type { i8 }
%"class.std::basic_ostream" = type { i32 (...)**, %"class.std::basic_ios" }
%"class.std::basic_ios" = type { %"class.std::ios_base", %"class.std::basic_ostream"*, i8, i8, %"class.std::basic_streambuf"*, %"class.std::ctype"*, %"class.std::num_put"*, %"class.std::num_get"* }
%"class.std::ios_base" = type { i32 (...)**, i64, i64, i32, i32, i32, %"struct.std::ios_base::_Callback_list"*, %"struct.std::ios_base::_Words", [8 x %"struct.std::ios_base::_Words"], i32, %"struct.std::ios_base::_Words"*, %"class.std::locale" }
%"struct.std::ios_base::_Callback_list" = type { %"struct.std::ios_base::_Callback_list"*, void (i32, %"class.std::ios_base"*, i32)*, i32, i32 }
%"struct.std::ios_base::_Words" = type { i8*, i64 }
%"class.std::locale" = type { %"class.std::locale::_Impl"* }
%"class.std::locale::_Impl" = type { i32, %"class.std::locale::facet"**, i64, %"class.std::locale::facet"**, i8** }
%"class.std::locale::facet" = type <{ i32 (...)**, i32, [4 x i8] }>
%"class.std::basic_streambuf" = type { i32 (...)**, i8*, i8*, i8*, i8*, i8*, i8*, %"class.std::locale" }
%"class.std::ctype" = type <{ %"class.std::locale::facet.base", [4 x i8], %struct.__locale_struct*, i8, [7 x i8], i32*, i32*, i16*, i8, [256 x i8], [256 x i8], i8, [6 x i8] }>
%"class.std::locale::facet.base" = type <{ i32 (...)**, i32 }>
%struct.__locale_struct = type { [13 x %struct.__locale_data*], i16*, i32*, i32*, [13 x i8*] }
%struct.__locale_data = type opaque
%"class.std::num_put" = type { %"class.std::locale::facet.base", [4 x i8] }
%"class.std::num_get" = type { %"class.std::locale::facet.base", [4 x i8] }
%"class.std::basic_istream" = type { i32 (...)**, i64, %"class.std::basic_ios" }

@_ZStL8__ioinit = internal global %"class.std::ios_base::Init" zeroinitializer, align 1
@__dso_handle = external hidden global i8
@_ZSt4cout = external dso_local global %"class.std::basic_ostream", align 8
@.str = private unnamed_addr constant [2 x i8] c" \00", align 1
@_ZSt3cin = external dso_local global %"class.std::basic_istream", align 8
@llvm.global_ctors = appending global [1 x { i32, void ()*, i8* }] [{ i32, void ()*, i8* } { i32 65535, void ()* @_GLOBAL__sub_I_215.cpp, i8* null }]

; Function Attrs: noinline uwtable
define internal void @__cxx_global_var_init() #0 section ".text.startup" {
  call void @_ZNSt8ios_base4InitC1Ev(%"class.std::ios_base::Init"* @_ZStL8__ioinit)
  %1 = call i32 @__cxa_atexit(void (i8*)* bitcast (void (%"class.std::ios_base::Init"*)* @_ZNSt8ios_base4InitD1Ev to void (i8*)*), i8* getelementptr inbounds (%"class.std::ios_base::Init", %"class.std::ios_base::Init"* @_ZStL8__ioinit, i32 0, i32 0), i8* @__dso_handle) #3
  ret void
}

declare dso_local void @_ZNSt8ios_base4InitC1Ev(%"class.std::ios_base::Init"*) unnamed_addr #1

; Function Attrs: nounwind
declare dso_local void @_ZNSt8ios_base4InitD1Ev(%"class.std::ios_base::Init"*) unnamed_addr #2

; Function Attrs: nounwind
declare dso_local i32 @__cxa_atexit(void (i8*)*, i8*, i8*) #3

; Function Attrs: noinline norecurse uwtable
define dso_local i32 @main() #4 {
  %1 = alloca i32, align 4
  %2 = alloca i32, align 4
  %3 = alloca i32, align 4
  %4 = alloca i32, align 4
  %5 = alloca i32, align 4
  %6 = alloca i32, align 4
  %7 = alloca i32, align 4
  %8 = alloca i32, align 4
  %9 = alloca i32, align 4
  %10 = alloca i32, align 4
  %11 = alloca i32, align 4
  store i32 0, i32* %1, align 4
  store i32 1, i32* %2, align 4
  br label %12

12:                                               ; preds = %125, %0
  %13 = load i32, i32* %2, align 4
  %14 = icmp sle i32 %13, 5
  br i1 %14, label %15, label %128

15:                                               ; preds = %12
  store i32 1, i32* %3, align 4
  br label %16

16:                                               ; preds = %121, %15
  %17 = load i32, i32* %3, align 4
  %18 = icmp sle i32 %17, 5
  br i1 %18, label %19, label %23

19:                                               ; preds = %16
  %20 = load i32, i32* %3, align 4
  %21 = load i32, i32* %2, align 4
  %22 = icmp ne i32 %20, %21
  br label %23

23:                                               ; preds = %19, %16
  %24 = phi i1 [ false, %16 ], [ %22, %19 ]
  br i1 %24, label %25, label %124

25:                                               ; preds = %23
  store i32 1, i32* %4, align 4
  br label %26

26:                                               ; preds = %117, %25
  %27 = load i32, i32* %4, align 4
  %28 = load i32, i32* %2, align 4
  %29 = icmp ne i32 %27, %28
  br i1 %29, label %30, label %37

30:                                               ; preds = %26
  %31 = load i32, i32* %4, align 4
  %32 = load i32, i32* %3, align 4
  %33 = icmp ne i32 %31, %32
  br i1 %33, label %34, label %37

34:                                               ; preds = %30
  %35 = load i32, i32* %4, align 4
  %36 = icmp sle i32 %35, 5
  br label %37

37:                                               ; preds = %34, %30, %26
  %38 = phi i1 [ false, %30 ], [ false, %26 ], [ %36, %34 ]
  br i1 %38, label %39, label %120

39:                                               ; preds = %37
  store i32 1, i32* %5, align 4
  br label %40

40:                                               ; preds = %113, %39
  %41 = load i32, i32* %5, align 4
  %42 = icmp sle i32 %41, 5
  br i1 %42, label %43, label %55

43:                                               ; preds = %40
  %44 = load i32, i32* %5, align 4
  %45 = load i32, i32* %2, align 4
  %46 = icmp ne i32 %44, %45
  br i1 %46, label %47, label %55

47:                                               ; preds = %43
  %48 = load i32, i32* %5, align 4
  %49 = load i32, i32* %3, align 4
  %50 = icmp ne i32 %48, %49
  br i1 %50, label %51, label %55

51:                                               ; preds = %47
  %52 = load i32, i32* %5, align 4
  %53 = load i32, i32* %4, align 4
  %54 = icmp ne i32 %52, %53
  br label %55

55:                                               ; preds = %51, %47, %43, %40
  %56 = phi i1 [ false, %47 ], [ false, %43 ], [ false, %40 ], [ %54, %51 ]
  br i1 %56, label %57, label %116

57:                                               ; preds = %55
  store i32 1, i32* %6, align 4
  br label %58

58:                                               ; preds = %109, %57
  %59 = load i32, i32* %6, align 4
  %60 = icmp ne i32 %59, 2
  br i1 %60, label %61, label %80

61:                                               ; preds = %58
  %62 = load i32, i32* %6, align 4
  %63 = icmp ne i32 %62, 3
  br i1 %63, label %64, label %80

64:                                               ; preds = %61
  %65 = load i32, i32* %6, align 4
  %66 = load i32, i32* %2, align 4
  %67 = icmp ne i32 %65, %66
  br i1 %67, label %68, label %80

68:                                               ; preds = %64
  %69 = load i32, i32* %6, align 4
  %70 = load i32, i32* %3, align 4
  %71 = icmp ne i32 %69, %70
  br i1 %71, label %72, label %80

72:                                               ; preds = %68
  %73 = load i32, i32* %6, align 4
  %74 = load i32, i32* %4, align 4
  %75 = icmp ne i32 %73, %74
  br i1 %75, label %76, label %80

76:                                               ; preds = %72
  %77 = load i32, i32* %6, align 4
  %78 = load i32, i32* %5, align 4
  %79 = icmp ne i32 %77, %78
  br label %80

80:                                               ; preds = %76, %72, %68, %64, %61, %58
  %81 = phi i1 [ false, %72 ], [ false, %68 ], [ false, %64 ], [ false, %61 ], [ false, %58 ], [ %79, %76 ]
  br i1 %81, label %82, label %112

82:                                               ; preds = %80
  %83 = load i32, i32* %6, align 4
  %84 = icmp eq i32 %83, 1
  %85 = zext i1 %84 to i32
  store i32 %85, i32* %7, align 4
  store i32 1, i32* %8, align 4
  %86 = load i32, i32* %2, align 4
  %87 = icmp eq i32 %86, 5
  %88 = zext i1 %87 to i32
  store i32 %88, i32* %9, align 4
  %89 = load i32, i32* %4, align 4
  %90 = icmp ne i32 %89, 1
  %91 = zext i1 %90 to i32
  store i32 %91, i32* %10, align 4
  %92 = load i32, i32* %5, align 4
  %93 = icmp eq i32 %92, 1
  %94 = zext i1 %93 to i32
  store i32 %94, i32* %11, align 4
  %95 = load i32, i32* %2, align 4
  %96 = call dereferenceable(272) %"class.std::basic_ostream"* @_ZNSolsEi(%"class.std::basic_ostream"* @_ZSt4cout, i32 %95)
  %97 = call dereferenceable(272) %"class.std::basic_ostream"* @_ZStlsISt11char_traitsIcEERSt13basic_ostreamIcT_ES5_PKc(%"class.std::basic_ostream"* dereferenceable(272) %96, i8* getelementptr inbounds ([2 x i8], [2 x i8]* @.str, i64 0, i64 0))
  %98 = load i32, i32* %5, align 4
  %99 = call dereferenceable(272) %"class.std::basic_ostream"* @_ZNSolsEi(%"class.std::basic_ostream"* %97, i32 %98)
  %100 = call dereferenceable(272) %"class.std::basic_ostream"* @_ZStlsISt11char_traitsIcEERSt13basic_ostreamIcT_ES5_PKc(%"class.std::basic_ostream"* dereferenceable(272) %99, i8* getelementptr inbounds ([2 x i8], [2 x i8]* @.str, i64 0, i64 0))
  %101 = load i32, i32* %6, align 4
  %102 = call dereferenceable(272) %"class.std::basic_ostream"* @_ZNSolsEi(%"class.std::basic_ostream"* %100, i32 %101)
  %103 = call dereferenceable(272) %"class.std::basic_ostream"* @_ZStlsISt11char_traitsIcEERSt13basic_ostreamIcT_ES5_PKc(%"class.std::basic_ostream"* dereferenceable(272) %102, i8* getelementptr inbounds ([2 x i8], [2 x i8]* @.str, i64 0, i64 0))
  %104 = load i32, i32* %4, align 4
  %105 = call dereferenceable(272) %"class.std::basic_ostream"* @_ZNSolsEi(%"class.std::basic_ostream"* %103, i32 %104)
  %106 = call dereferenceable(272) %"class.std::basic_ostream"* @_ZStlsISt11char_traitsIcEERSt13basic_ostreamIcT_ES5_PKc(%"class.std::basic_ostream"* dereferenceable(272) %105, i8* getelementptr inbounds ([2 x i8], [2 x i8]* @.str, i64 0, i64 0))
  %107 = load i32, i32* %3, align 4
  %108 = call dereferenceable(272) %"class.std::basic_ostream"* @_ZNSolsEi(%"class.std::basic_ostream"* %106, i32 %107)
  br label %109

109:                                              ; preds = %82
  %110 = load i32, i32* %6, align 4
  %111 = add nsw i32 %110, 1
  store i32 %111, i32* %6, align 4
  br label %58

112:                                              ; preds = %80
  br label %113

113:                                              ; preds = %112
  %114 = load i32, i32* %5, align 4
  %115 = add nsw i32 %114, 1
  store i32 %115, i32* %5, align 4
  br label %40

116:                                              ; preds = %55
  br label %117

117:                                              ; preds = %116
  %118 = load i32, i32* %4, align 4
  %119 = add nsw i32 %118, 1
  store i32 %119, i32* %4, align 4
  br label %26

120:                                              ; preds = %37
  br label %121

121:                                              ; preds = %120
  %122 = load i32, i32* %3, align 4
  %123 = add nsw i32 %122, 1
  store i32 %123, i32* %3, align 4
  br label %16

124:                                              ; preds = %23
  br label %125

125:                                              ; preds = %124
  %126 = load i32, i32* %2, align 4
  %127 = add nsw i32 %126, 1
  store i32 %127, i32* %2, align 4
  br label %12

128:                                              ; preds = %12
  %129 = call i32 @_ZNSi3getEv(%"class.std::basic_istream"* @_ZSt3cin)
  ret i32 0
}

declare dso_local dereferenceable(272) %"class.std::basic_ostream"* @_ZStlsISt11char_traitsIcEERSt13basic_ostreamIcT_ES5_PKc(%"class.std::basic_ostream"* dereferenceable(272), i8*) #1

declare dso_local dereferenceable(272) %"class.std::basic_ostream"* @_ZNSolsEi(%"class.std::basic_ostream"*, i32) #1

declare dso_local i32 @_ZNSi3getEv(%"class.std::basic_istream"*) #1

; Function Attrs: noinline uwtable
define internal void @_GLOBAL__sub_I_215.cpp() #0 section ".text.startup" {
  call void @__cxx_global_var_init()
  ret void
}


!llvm.module.flags = !{!0}
!llvm.ident = !{!1}

!0 = !{i32 1, !"wchar_size", i32 4}
!1 = !{!"clang version 10.0.0-4ubuntu1 "}
